target datalayout = "e-m:e-p270:32:32-p271:32:32-p272:64:64-i64:64-i128:128-f80:128-n8:16:32:64-S128"
target triple = "x86_64-pc-linux-gnu"

; Function Attrs: nounwind uwtable
define internal ptr @zenity_clean_name(ptr noundef %0) #0 {
  %2 = alloca ptr, align 8
  %3 = alloca ptr, align 8
  %4 = alloca ptr, align 8
  store ptr %0, ptr %2, align 8
  call void @llvm.lifetime.start.p0(i64 8, ptr %3) #6
  %5 = load ptr, ptr %2, align 8
  %6 = call noalias ptr @SDL_strdup_REAL(ptr noundef %5)
  store ptr %6, ptr %3, align 8
  call void @llvm.lifetime.start.p0(i64 8, ptr %4) #6
  %7 = load ptr, ptr %3, align 8
  store ptr %7, ptr %4, align 8
  br label %8

8:                                                ; preds = %21, %1
  %9 = load ptr, ptr %4, align 8
  %10 = load i8, ptr %9, align 1
  %11 = icmp ne i8 %10, 0
  br i1 %11, label %13, label %12

12:                                               ; preds = %8
  call void @llvm.lifetime.end.p0(i64 8, ptr %4) #6
  br label %24

13:                                               ; preds = %8
  %14 = load ptr, ptr %4, align 8
  %15 = load i8, ptr %14, align 1
  %16 = sext i8 %15 to i32
  %17 = icmp eq i32 %16, 124
  br i1 %17, label %18, label %20

18:                                               ; preds = %13
  %19 = load ptr, ptr %4, align 8
  store i8 47, ptr %19, align 1
  br label %20

20:                                               ; preds = %18, %13
  br label %21

21:                                               ; preds = %20
  %22 = load ptr, ptr %4, align 8
  %23 = getelementptr inbounds nuw i8, ptr %22, i32 1
  store ptr %23, ptr %4, align 8
  br label %8, !llvm.loop !7

24:                                               ; preds = %12
  %25 = load ptr, ptr %3, align 8
  call void @llvm.lifetime.end.p0(i64 8, ptr %3) #6
  ret ptr %25
}