; Function Attrs: nounwind uwtable
define internal noalias ptr @zenity_clean_name(ptr noundef %0) #0 {
  %2 = tail call noalias ptr @SDL_strdup_REAL(ptr noundef %0) #7
  br label %3

3:                                                ; preds = %7, %1
  %.0 = phi ptr [ %2, %1 ], [ %8, %7 ]
  %4 = load i8, ptr %.0, align 1
  switch i8 %4, label %7 [
    i8 0, label %5
    i8 124, label %6
  ]

5:                                                ; preds = %3
  ret ptr %2

6:                                                ; preds = %3
  store i8 47, ptr %.0, align 1
  br label %7

7:                                                ; preds = %3, %6
  %8 = getelementptr inbounds nuw i8, ptr %.0, i64 1
  br label %3, !llvm.loop !8
}